target datalayout = "e-m:e-p270:32:32-p271:32:32-p272:64:64-i64:64-i128:128-f80:128-n8:16:32:64-S128"
target triple = "x86_64-pc-linux-gnu"

%"class.llvm::PointerIntPair" = type { %"struct.llvm::detail::PunnedPointer" }
%"struct.llvm::detail::PunnedPointer" = type { [8 x i8] }
%"class.llvm::PointerUnion" = type { %"class.llvm::pointer_union_detail::PointerUnionMembers" }
%"class.llvm::pointer_union_detail::PointerUnionMembers" = type { %"class.llvm::pointer_union_detail::PointerUnionMembers.0" }
%"class.llvm::pointer_union_detail::PointerUnionMembers.0" = type { %"class.llvm::pointer_union_detail::PointerUnionMembers.1" }
%"class.llvm::pointer_union_detail::PointerUnionMembers.1" = type { %"class.llvm::PointerIntPair.2" }
%"class.llvm::PointerIntPair.2" = type { %"struct.llvm::detail::PunnedPointer.3" }
%"struct.llvm::detail::PunnedPointer.3" = type { [8 x i8] }
%"class.clang::SourceLocation" = type { i32 }
%"class.clang::CXXRecordDecl" = type { %"class.clang::RecordDecl", ptr, %"class.llvm::PointerUnion.33" }
%"class.clang::RecordDecl" = type { %"class.clang::TagDecl" }
%"class.clang::TagDecl" = type { %"class.clang::TypeDecl.base", %"class.clang::DeclContext", %"class.clang::Redeclarable.27", %"class.clang::SourceRange", %"class.llvm::PointerUnion.28" }
%"class.clang::TypeDecl.base" = type <{ %"class.clang::NamedDecl", ptr, %"class.clang::SourceLocation" }>
%"class.clang::NamedDecl" = type { %"class.clang::Decl.base", %"class.clang::DeclarationName" }
%"class.clang::Decl.base" = type <{ ptr, %"class.llvm::PointerIntPair", %"class.llvm::PointerUnion", %"class.clang::SourceLocation", i32, i8 }>
%"class.clang::DeclarationName" = type { i64 }
%"class.clang::DeclContext" = type { ptr, %union.anon.12, ptr, ptr }
%union.anon.12 = type { %"class.clang::DeclContext::RecordDeclBitfields" }
%"class.clang::DeclContext::RecordDeclBitfields" = type { i64 }
%"class.clang::Redeclarable.27" = type { %"class.clang::Redeclarable<clang::TagDecl>::DeclLink", ptr }
%"class.clang::Redeclarable<clang::TagDecl>::DeclLink" = type { %"class.llvm::PointerUnion.13" }
%"class.llvm::PointerUnion.13" = type { %"class.llvm::pointer_union_detail::PointerUnionMembers.14" }
%"class.llvm::pointer_union_detail::PointerUnionMembers.14" = type { %"class.llvm::pointer_union_detail::PointerUnionMembers.15" }
%"class.llvm::pointer_union_detail::PointerUnionMembers.15" = type { %"class.llvm::pointer_union_detail::PointerUnionMembers.16" }
%"class.llvm::pointer_union_detail::PointerUnionMembers.16" = type { %"class.llvm::PointerIntPair.17" }
%"class.llvm::PointerIntPair.17" = type { %"struct.llvm::detail::PunnedPointer.3" }
%"class.clang::SourceRange" = type { %"class.clang::SourceLocation", %"class.clang::SourceLocation" }
%"class.llvm::PointerUnion.28" = type { %"class.llvm::pointer_union_detail::PointerUnionMembers.29" }
%"class.llvm::pointer_union_detail::PointerUnionMembers.29" = type { %"class.llvm::pointer_union_detail::PointerUnionMembers.30" }
%"class.llvm::pointer_union_detail::PointerUnionMembers.30" = type { %"class.llvm::pointer_union_detail::PointerUnionMembers.31" }
%"class.llvm::pointer_union_detail::PointerUnionMembers.31" = type { %"class.llvm::PointerIntPair.32" }
%"class.llvm::PointerIntPair.32" = type { %"struct.llvm::detail::PunnedPointer.3" }
%"class.llvm::PointerUnion.33" = type { %"class.llvm::pointer_union_detail::PointerUnionMembers.34" }
%"class.llvm::pointer_union_detail::PointerUnionMembers.34" = type { %"class.llvm::pointer_union_detail::PointerUnionMembers.35" }
%"class.llvm::pointer_union_detail::PointerUnionMembers.35" = type { %"class.llvm::pointer_union_detail::PointerUnionMembers.36" }
%"class.llvm::pointer_union_detail::PointerUnionMembers.36" = type { %"class.llvm::PointerIntPair.37" }
%"class.llvm::PointerIntPair.37" = type { %"struct.llvm::detail::PunnedPointer.3" }
%"struct.clang::CXXRecordDecl::DefinitionData" = type { i64, i32, i32, i32, i32, %"struct.clang::LazyOffsetPtr.923", %"struct.clang::LazyOffsetPtr.923", %"class.clang::LazyASTUnresolvedSet", %"class.clang::LazyASTUnresolvedSet", ptr, %"struct.clang::LazyOffsetPtr.927" }
%"struct.clang::LazyOffsetPtr.923" = type { [8 x i8] }
%"class.clang::LazyASTUnresolvedSet" = type { %"class.clang::ASTUnresolvedSet" }
%"class.clang::ASTUnresolvedSet" = type { %"struct.clang::ASTUnresolvedSet::DeclsTy" }
%"struct.clang::ASTUnresolvedSet::DeclsTy" = type { %"class.clang::ASTVector.924" }
%"class.clang::ASTVector.924" = type { ptr, ptr, %"class.llvm::PointerIntPair.925" }
%"class.llvm::PointerIntPair.925" = type { %"struct.llvm::detail::PunnedPointer.926" }
%"struct.llvm::detail::PunnedPointer.926" = type { [8 x i8] }
%"struct.clang::LazyOffsetPtr.927" = type { [8 x i8] }

; Function Attrs: mustprogress nounwind uwtable
define linkonce_odr hidden noundef ptr @_ZN4llvm16cast_convert_valIN5clang10RecordDeclEPNS1_7TagDeclES4_E4doitEPKS3_(ptr noundef %0) #4 comdat align 2 {
  %2 = alloca ptr, align 8
  store ptr %0, ptr %2, align 8, !tbaa !682
  %3 = load ptr, ptr %2, align 8, !tbaa !682
  ret ptr %3
}

; Function Attrs: mustprogress nounwind uwtable
define linkonce_odr hidden noundef ptr @_ZN4llvm16cast_convert_valIN5clang13CXXRecordDeclEPNS1_10RecordDeclES4_E4doitEPKS3_(ptr noundef %0) #4 comdat align 2 {
  %2 = alloca ptr, align 8
  store ptr %0, ptr %2, align 8, !tbaa !679
  %3 = load ptr, ptr %2, align 8, !tbaa !679
  ret ptr %3
}

; Function Attrs: inlinehint mustprogress uwtable
define linkonce_odr hidden noundef ptr @_ZN4llvm8CastInfoIN5clang10RecordDeclEPNS1_7TagDeclEvE6doCastERKS4_(ptr noundef nonnull align 8 dereferenceable(8) %0) #5 comdat align 2 {
  %2 = alloca ptr, align 8
  store ptr %0, ptr %2, align 8, !tbaa !685
  %3 = load ptr, ptr %2, align 8, !tbaa !685
  %4 = load ptr, ptr %3, align 8, !tbaa !682
  %5 = call noundef ptr @_ZN4llvm16cast_convert_valIN5clang10RecordDeclEPNS1_7TagDeclES4_E4doitEPKS3_(ptr noundef %4)
  ret ptr %5
}

; Function Attrs: mustprogress uwtable
define linkonce_odr hidden noundef ptr @_ZNK5clang12RedeclarableINS_7TagDeclEE20getNextRedeclarationEv(ptr noundef nonnull align 8 dereferenceable(16) %0) #2 comdat align 2 {
  %2 = alloca ptr, align 8
  store ptr %0, ptr %2, align 8, !tbaa !683
  %3 = load ptr, ptr %2, align 8
  %4 = getelementptr inbounds nuw %"class.clang::Redeclarable.27", ptr %3, i32 0, i32 0
  %5 = getelementptr inbounds i8, ptr %3, i64 -96
  %6 = call noundef ptr @_ZNK5clang12RedeclarableINS_7TagDeclEE8DeclLink11getPreviousEPKS1_(ptr noundef nonnull align 8 dereferenceable(8) %4, ptr noundef %5)
  ret ptr %6
}

; Function Attrs: mustprogress nounwind uwtable
define linkonce_odr hidden noundef ptr @_ZN5clang12RedeclarableINS_7TagDeclEE12getFirstDeclEv(ptr noundef nonnull align 8 dereferenceable(16) %0) #4 comdat align 2 {
  %2 = alloca ptr, align 8
  store ptr %0, ptr %2, align 8, !tbaa !683
  %3 = load ptr, ptr %2, align 8
  %4 = getelementptr inbounds nuw %"class.clang::Redeclarable.27", ptr %3, i32 0, i32 1
  %5 = load ptr, ptr %4, align 8, !tbaa !687
  ret ptr %5
}

; Function Attrs: inlinehint mustprogress uwtable
define linkonce_odr hidden noundef ptr @_ZN4llvm8CastInfoIN5clang13CXXRecordDeclEPNS1_10RecordDeclEvE6doCastERKS4_(ptr noundef nonnull align 8 dereferenceable(8) %0) #5 comdat align 2 {
  %2 = alloca ptr, align 8
  store ptr %0, ptr %2, align 8, !tbaa !680
  %3 = load ptr, ptr %2, align 8, !tbaa !680
  %4 = load ptr, ptr %3, align 8, !tbaa !679
  %5 = call noundef ptr @_ZN4llvm16cast_convert_valIN5clang13CXXRecordDeclEPNS1_10RecordDeclES4_E4doitEPKS3_(ptr noundef %4)
  ret ptr %5
}

; Function Attrs: inlinehint mustprogress uwtable
define linkonce_odr hidden noundef ptr @_ZN4llvm4castIN5clang10RecordDeclENS1_7TagDeclEEEDcPT0_(ptr noundef %0) #5 comdat {
  %2 = alloca ptr, align 8
  store ptr %0, ptr %2, align 8, !tbaa !682
  %3 = call noundef ptr @_ZN4llvm8CastInfoIN5clang10RecordDeclEPNS1_7TagDeclEvE6doCastERKS4_(ptr noundef nonnull align 8 dereferenceable(8) %2)
  ret ptr %3
}

; Function Attrs: mustprogress uwtable
define linkonce_odr hidden noundef ptr @_ZN5clang12RedeclarableINS_7TagDeclEE17getMostRecentDeclEv(ptr noundef nonnull align 8 dereferenceable(16) %0) #2 comdat align 2 {
  %2 = alloca ptr, align 8
  store ptr %0, ptr %2, align 8, !tbaa !683
  %3 = load ptr, ptr %2, align 8
  %4 = call noundef ptr @_ZN5clang12RedeclarableINS_7TagDeclEE12getFirstDeclEv(ptr noundef nonnull align 8 dereferenceable(16) %3)
  %5 = getelementptr inbounds i8, ptr %4, i64 96
  %6 = call noundef ptr @_ZNK5clang12RedeclarableINS_7TagDeclEE20getNextRedeclarationEv(ptr noundef nonnull align 8 dereferenceable(16) %5)
  ret ptr %6
}

; Function Attrs: inlinehint mustprogress uwtable
define linkonce_odr hidden noundef ptr @_ZN4llvm4castIN5clang13CXXRecordDeclENS1_10RecordDeclEEEDcPT0_(ptr noundef %0) #5 comdat {
  %2 = alloca ptr, align 8
  store ptr %0, ptr %2, align 8, !tbaa !679
  %3 = call noundef ptr @_ZN4llvm8CastInfoIN5clang13CXXRecordDeclEPNS1_10RecordDeclEvE6doCastERKS4_(ptr noundef nonnull align 8 dereferenceable(8) %2)
  ret ptr %3
}

; Function Attrs: mustprogress uwtable
define linkonce_odr hidden noundef ptr @_ZN5clang10RecordDecl17getMostRecentDeclEv(ptr noundef nonnull align 8 dereferenceable(128) %0) #2 comdat align 2 {
  %2 = alloca ptr, align 8
  store ptr %0, ptr %2, align 8, !tbaa !679
  %3 = load ptr, ptr %2, align 8
  %4 = getelementptr inbounds i8, ptr %3, i64 96
  %5 = call noundef ptr @_ZN5clang12RedeclarableINS_7TagDeclEE17getMostRecentDeclEv(ptr noundef nonnull align 8 dereferenceable(16) %4)
  %6 = call noundef ptr @_ZN4llvm4castIN5clang10RecordDeclENS1_7TagDeclEEEDcPT0_(ptr noundef %5)
  ret ptr %6
}

; Function Attrs: mustprogress uwtable
define linkonce_odr hidden noundef ptr @_ZN5clang13CXXRecordDecl17getMostRecentDeclEv(ptr noundef nonnull align 8 dereferenceable(144) %0) #2 comdat align 2 {
  %2 = alloca ptr, align 8
  store ptr %0, ptr %2, align 8, !tbaa !26
  %3 = load ptr, ptr %2, align 8
  %4 = call noundef ptr @_ZN5clang10RecordDecl17getMostRecentDeclEv(ptr noundef nonnull align 8 dereferenceable(128) %3)
  %5 = call noundef ptr @_ZN4llvm4castIN5clang13CXXRecordDeclENS1_10RecordDeclEEEDcPT0_(ptr noundef %4)
  ret ptr %5
}

; Function Attrs: mustprogress uwtable
define linkonce_odr hidden noundef ptr @_ZNK5clang13CXXRecordDecl17getMostRecentDeclEv(ptr noundef nonnull align 8 dereferenceable(144) %0) #2 comdat align 2 {
  %2 = alloca ptr, align 8
  store ptr %0, ptr %2, align 8, !tbaa !26
  %3 = load ptr, ptr %2, align 8
  %4 = call noundef ptr @_ZN5clang13CXXRecordDecl17getMostRecentDeclEv(ptr noundef nonnull align 8 dereferenceable(144) %3)
  ret ptr %4
}

; Function Attrs: mustprogress uwtable
define linkonce_odr hidden noundef ptr @_ZNK5clang13CXXRecordDecl7dataPtrEv(ptr noundef nonnull align 8 dereferenceable(144) %0) #2 comdat align 2 {
  %2 = alloca ptr, align 8
  store ptr %0, ptr %2, align 8, !tbaa !26
  %3 = load ptr, ptr %2, align 8
  %4 = call noundef ptr @_ZNK5clang13CXXRecordDecl17getMostRecentDeclEv(ptr noundef nonnull align 8 dereferenceable(144) %3)
  %5 = getelementptr inbounds nuw %"class.clang::CXXRecordDecl", ptr %3, i32 0, i32 1
  %6 = load ptr, ptr %5, align 8, !tbaa !32
  ret ptr %6
}

; Function Attrs: mustprogress uwtable
define linkonce_odr hidden noundef nonnull align 8 dereferenceable(104) ptr @_ZNK5clang13CXXRecordDecl4dataEv(ptr noundef nonnull align 8 dereferenceable(144) %0) #2 comdat align 2 {
  %2 = alloca ptr, align 8
  %3 = alloca ptr, align 8
  store ptr %0, ptr %2, align 8, !tbaa !26
  %4 = load ptr, ptr %2, align 8
  call void @llvm.lifetime.start.p0(i64 8, ptr %3) #21
  %5 = call noundef ptr @_ZNK5clang13CXXRecordDecl7dataPtrEv(ptr noundef nonnull align 8 dereferenceable(144) %4)
  store ptr %5, ptr %3, align 8, !tbaa !72
  %6 = load ptr, ptr %3, align 8, !tbaa !72
  call void @llvm.lifetime.end.p0(i64 8, ptr %3) #21
  ret ptr %6
}

; Function Attrs: mustprogress uwtable
define linkonce_odr hidden noundef zeroext i1 @_ZNK5clang13CXXRecordDecl21hasDefaultConstructorEv(ptr noundef nonnull align 8 dereferenceable(144) %0) #2 comdat align 2 {
  %2 = alloca ptr, align 8
  store ptr %0, ptr %2, align 8, !tbaa !26
  %3 = load ptr, ptr %2, align 8
  %4 = call noundef nonnull align 8 dereferenceable(104) ptr @_ZNK5clang13CXXRecordDecl4dataEv(ptr noundef nonnull align 8 dereferenceable(144) %3)
  %5 = getelementptr inbounds nuw %"struct.clang::CXXRecordDecl::DefinitionData", ptr %4, i32 0, i32 1
  %6 = load i32, ptr %5, align 8
  %7 = lshr i32 %6, 8
  %8 = and i32 %7, 63
  %9 = and i32 %8, 1
  %10 = icmp ne i32 %9, 0
  br i1 %10, label %13, label %11

11:                                               ; preds = %1
  %12 = call noundef zeroext i1 @_ZNK5clang13CXXRecordDecl31needsImplicitDefaultConstructorEv(ptr noundef nonnull align 8 dereferenceable(144) %3)
  br label %13

13:                                               ; preds = %11, %1
  %14 = phi i1 [ true, %1 ], [ %12, %11 ]
  ret i1 %14
}

; Function Attrs: mustprogress uwtable
define linkonce_odr hidden noundef zeroext i1 @_ZNK5clang13CXXRecordDecl28hasTrivialDefaultConstructorEv(ptr noundef nonnull align 8 dereferenceable(144) %0) #2 comdat align 2 {
  %2 = alloca ptr, align 8
  store ptr %0, ptr %2, align 8, !tbaa !26
  %3 = load ptr, ptr %2, align 8
  %4 = call noundef zeroext i1 @_ZNK5clang13CXXRecordDecl21hasDefaultConstructorEv(ptr noundef nonnull align 8 dereferenceable(144) %3)
  br i1 %4, label %5, label %13

5:                                                ; preds = %1
  %6 = call noundef nonnull align 8 dereferenceable(104) ptr @_ZNK5clang13CXXRecordDecl4dataEv(ptr noundef nonnull align 8 dereferenceable(144) %3)
  %7 = load i64, ptr %6, align 8
  %8 = lshr i64 %7, 39
  %9 = and i64 %8, 63
  %10 = trunc i64 %9 to i32
  %11 = and i32 %10, 1
  %12 = icmp ne i32 %11, 0
  br label %13

13:                                               ; preds = %5, %1
  %14 = phi i1 [ false, %1 ], [ %12, %5 ]
  ret i1 %14
}

; Function Attrs: mustprogress uwtable
define linkonce_odr hidden noundef zeroext i1 @_ZNK5clang13CXXRecordDecl9isTrivialEv(ptr noundef nonnull align 8 dereferenceable(144) %0) #2 comdat align 2 {
  %2 = alloca ptr, align 8
  store ptr %0, ptr %2, align 8, !tbaa !26
  %3 = load ptr, ptr %2, align 8
  %4 = call noundef zeroext i1 @_ZNK5clang13CXXRecordDecl19isTriviallyCopyableEv(ptr noundef nonnull align 8 dereferenceable(144) %3)
  br i1 %4, label %5, label %7

5:                                                ; preds = %1
  %6 = call noundef zeroext i1 @_ZNK5clang13CXXRecordDecl28hasTrivialDefaultConstructorEv(ptr noundef nonnull align 8 dereferenceable(144) %3)
  br label %7

7:                                                ; preds = %5, %1
  %8 = phi i1 [ false, %1 ], [ %6, %5 ]
  ret i1 %8
}

; Function Attrs: inlinehint mustprogress uwtable
define internal noundef zeroext i1 @_ZNK12_GLOBAL__N_18internal24matcher_isTrivialMatcher7matchesERKN5clang13CXXRecordDeclEPNS2_12ast_matchers8internal14ASTMatchFinderEPNS7_21BoundNodesTreeBuilderE(ptr noundef nonnull align 8 dereferenceable(12) %0, ptr noundef nonnull align 8 dereferenceable(144) %1, ptr noundef %2, ptr noundef %3) unnamed_addr #5 align 2 {
  %5 = alloca ptr, align 8
  %6 = alloca ptr, align 8
  %7 = alloca ptr, align 8
  %8 = alloca ptr, align 8
  store ptr %0, ptr %5, align 8, !tbaa !816
  store ptr %1, ptr %6, align 8, !tbaa !26
  store ptr %2, ptr %7, align 8, !tbaa !28
  store ptr %3, ptr %8, align 8, !tbaa !30
  %9 = load ptr, ptr %6, align 8, !tbaa !26
  %10 = call noundef zeroext i1 @_ZNK5clang13CXXRecordDecl9isTrivialEv(ptr noundef nonnull align 8 dereferenceable(144) %9)
  ret i1 %10
}