; Function Attrs: inlinehint mustprogress uwtable
define internal noundef zeroext i1 @_ZNK12_GLOBAL__N_18internal24matcher_isTrivialMatcher7matchesERKN5clang13CXXRecordDeclEPNS2_12ast_matchers8internal14ASTMatchFinderEPNS7_21BoundNodesTreeBuilderE(ptr nonnull readnone align 8 captures(none) %0, ptr noundef nonnull align 8 dereferenceable(144) %1, ptr readnone captures(none) %2, ptr readnone captures(none) %3) unnamed_addr #3 align 2 {
  %5 = tail call noundef zeroext i1 @_ZNK5clang13CXXRecordDecl19isTriviallyCopyableEv(ptr noundef nonnull align 8 dereferenceable(144) %1)
  br i1 %5, label %6, label %_ZNK5clang13CXXRecordDecl9isTrivialEv.exit

6:                                                ; preds = %4
  %7 = getelementptr inbounds nuw i8, ptr %1, i64 104
  %8 = load ptr, ptr %7, align 8, !tbaa !766
  %9 = getelementptr inbounds nuw i8, ptr %8, i64 96
  %10 = tail call noundef ptr @_ZNK5clang12RedeclarableINS_7TagDeclEE8DeclLink11getPreviousEPKS1_(ptr noundef nonnull align 8 dereferenceable(16) %9, ptr noundef nonnull %8)
  %11 = getelementptr inbounds nuw i8, ptr %1, i64 128
  %12 = load ptr, ptr %11, align 8, !tbaa !13
  %13 = getelementptr inbounds nuw i8, ptr %12, i64 8
  %14 = load i32, ptr %13, align 8
  %15 = and i32 %14, 256
  %.not.i.i.i = icmp eq i32 %15, 0
  br i1 %.not.i.i.i, label %_ZNK5clang13CXXRecordDecl21hasDefaultConstructorEv.exit.i.i, label %_ZNK5clang13CXXRecordDecl21hasDefaultConstructorEv.exit.thread.i.i

_ZNK5clang13CXXRecordDecl21hasDefaultConstructorEv.exit.i.i: ; preds = %6
  %16 = tail call noundef zeroext i1 @_ZNK5clang13CXXRecordDecl31needsImplicitDefaultConstructorEv(ptr noundef nonnull align 8 dereferenceable(144) %1)
  br i1 %16, label %_ZNK5clang13CXXRecordDecl21hasDefaultConstructorEv.exit.thread.i.i, label %_ZNK5clang13CXXRecordDecl9isTrivialEv.exit

_ZNK5clang13CXXRecordDecl21hasDefaultConstructorEv.exit.thread.i.i: ; preds = %_ZNK5clang13CXXRecordDecl21hasDefaultConstructorEv.exit.i.i, %6
  %17 = load ptr, ptr %7, align 8, !tbaa !766
  %18 = getelementptr inbounds nuw i8, ptr %17, i64 96
  %19 = tail call noundef ptr @_ZNK5clang12RedeclarableINS_7TagDeclEE8DeclLink11getPreviousEPKS1_(ptr noundef nonnull align 8 dereferenceable(16) %18, ptr noundef nonnull %17)
  %20 = load ptr, ptr %11, align 8, !tbaa !13
  %21 = load i64, ptr %20, align 8
  %22 = and i64 %21, 549755813888
  %23 = icmp ne i64 %22, 0
  br label %_ZNK5clang13CXXRecordDecl9isTrivialEv.exit

_ZNK5clang13CXXRecordDecl9isTrivialEv.exit:       ; preds = %4, %_ZNK5clang13CXXRecordDecl21hasDefaultConstructorEv.exit.i.i, %_ZNK5clang13CXXRecordDecl21hasDefaultConstructorEv.exit.thread.i.i
  %24 = phi i1 [ false, %4 ], [ false, %_ZNK5clang13CXXRecordDecl21hasDefaultConstructorEv.exit.i.i ], [ %23, %_ZNK5clang13CXXRecordDecl21hasDefaultConstructorEv.exit.thread.i.i ]
  ret i1 %24
}